target datalayout = "e-m:e-p270:32:32-p271:32:32-p272:64:64-i64:64-i128:128-f80:128-n8:16:32:64-S128"
target triple = "x86_64-pc-linux-gnu"

%struct.psa_crypto_local_output_s = type { ptr, ptr, i64 }
%struct.psa_crypto_local_input_s = type { ptr, i64 }
%struct.psa_tls12_ecjpake_to_pms_t = type { [32 x i8] }

; Function Attrs: nounwind uwtable
define internal i32 @psa_crypto_copy_output(ptr noundef %0, i64 noundef %1, ptr noundef %2, i64 noundef %3) #0 {
  %5 = alloca i32, align 4
  %6 = alloca ptr, align 8
  %7 = alloca i64, align 8
  %8 = alloca ptr, align 8
  %9 = alloca i64, align 8
  store ptr %0, ptr %6, align 8, !tbaa !29
  store i64 %1, ptr %7, align 8, !tbaa !20
  store ptr %2, ptr %8, align 8, !tbaa !29
  store i64 %3, ptr %9, align 8, !tbaa !20
  %10 = load i64, ptr %9, align 8, !tbaa !20
  %11 = load i64, ptr %7, align 8, !tbaa !20
  %12 = icmp ult i64 %10, %11
  br i1 %12, label %13, label %14

13:                                               ; preds = %4
  store i32 -138, ptr %5, align 4
  br label %22

14:                                               ; preds = %4
  %15 = load i64, ptr %7, align 8, !tbaa !20
  %16 = icmp ugt i64 %15, 0
  br i1 %16, label %17, label %21

17:                                               ; preds = %14
  %18 = load ptr, ptr %8, align 8, !tbaa !29
  %19 = load ptr, ptr %6, align 8, !tbaa !29
  %20 = load i64, ptr %7, align 8, !tbaa !20
  call void @llvm.memcpy.p0.p0.i64(ptr align 1 %18, ptr align 1 %19, i64 %20, i1 false)
  br label %21

21:                                               ; preds = %17, %14
  store i32 0, ptr %5, align 4
  br label %22

22:                                               ; preds = %21, %13
  %23 = load i32, ptr %5, align 4
  ret i32 %23
}

; Function Attrs: nounwind uwtable
define internal i32 @psa_crypto_copy_input(ptr noundef %0, i64 noundef %1, ptr noundef %2, i64 noundef %3) #0 {
  %5 = alloca i32, align 4
  %6 = alloca ptr, align 8
  %7 = alloca i64, align 8
  %8 = alloca ptr, align 8
  %9 = alloca i64, align 8
  store ptr %0, ptr %6, align 8, !tbaa !29
  store i64 %1, ptr %7, align 8, !tbaa !20
  store ptr %2, ptr %8, align 8, !tbaa !29
  store i64 %3, ptr %9, align 8, !tbaa !20
  %10 = load i64, ptr %7, align 8, !tbaa !20
  %11 = load i64, ptr %9, align 8, !tbaa !20
  %12 = icmp ugt i64 %10, %11
  br i1 %12, label %13, label %14

13:                                               ; preds = %4
  store i32 -151, ptr %5, align 4
  br label %22

14:                                               ; preds = %4
  %15 = load i64, ptr %7, align 8, !tbaa !20
  %16 = icmp ugt i64 %15, 0
  br i1 %16, label %17, label %21

17:                                               ; preds = %14
  %18 = load ptr, ptr %8, align 8, !tbaa !29
  %19 = load ptr, ptr %6, align 8, !tbaa !29
  %20 = load i64, ptr %7, align 8, !tbaa !20
  call void @llvm.memcpy.p0.p0.i64(ptr align 1 %18, ptr align 1 %19, i64 %20, i1 false)
  br label %21

21:                                               ; preds = %17, %14
  store i32 0, ptr %5, align 4
  br label %22

22:                                               ; preds = %21, %13
  %23 = load i32, ptr %5, align 4
  ret i32 %23
}

; Function Attrs: nounwind uwtable
define hidden i32 @psa_crypto_local_output_free(ptr noundef %0) #0 {
  %2 = alloca i32, align 4
  %3 = alloca ptr, align 8
  %4 = alloca i32, align 4
  %5 = alloca i32, align 4
  store ptr %0, ptr %3, align 8, !tbaa !46
  call void @llvm.lifetime.start.p0(i64 4, ptr %4) #8
  %6 = load ptr, ptr %3, align 8, !tbaa !46
  %7 = getelementptr inbounds nuw %struct.psa_crypto_local_output_s, ptr %6, i32 0, i32 1
  %8 = load ptr, ptr %7, align 8, !tbaa !44
  %9 = icmp eq ptr %8, null
  br i1 %9, label %10, label %13

10:                                               ; preds = %1
  %11 = load ptr, ptr %3, align 8, !tbaa !46
  %12 = getelementptr inbounds nuw %struct.psa_crypto_local_output_s, ptr %11, i32 0, i32 2
  store i64 0, ptr %12, align 8, !tbaa !49
  store i32 0, ptr %2, align 4
  store i32 1, ptr %5, align 4
  br label %45

13:                                               ; preds = %1
  %14 = load ptr, ptr %3, align 8, !tbaa !46
  %15 = getelementptr inbounds nuw %struct.psa_crypto_local_output_s, ptr %14, i32 0, i32 0
  %16 = load ptr, ptr %15, align 8, !tbaa !50
  %17 = icmp eq ptr %16, null
  br i1 %17, label %18, label %19

18:                                               ; preds = %13
  store i32 -151, ptr %2, align 4
  store i32 1, ptr %5, align 4
  br label %45

19:                                               ; preds = %13
  %20 = load ptr, ptr %3, align 8, !tbaa !46
  %21 = getelementptr inbounds nuw %struct.psa_crypto_local_output_s, ptr %20, i32 0, i32 1
  %22 = load ptr, ptr %21, align 8, !tbaa !44
  %23 = load ptr, ptr %3, align 8, !tbaa !46
  %24 = getelementptr inbounds nuw %struct.psa_crypto_local_output_s, ptr %23, i32 0, i32 2
  %25 = load i64, ptr %24, align 8, !tbaa !49
  %26 = load ptr, ptr %3, align 8, !tbaa !46
  %27 = getelementptr inbounds nuw %struct.psa_crypto_local_output_s, ptr %26, i32 0, i32 0
  %28 = load ptr, ptr %27, align 8, !tbaa !50
  %29 = load ptr, ptr %3, align 8, !tbaa !46
  %30 = getelementptr inbounds nuw %struct.psa_crypto_local_output_s, ptr %29, i32 0, i32 2
  %31 = load i64, ptr %30, align 8, !tbaa !49
  %32 = call i32 @psa_crypto_copy_output(ptr noundef %22, i64 noundef %25, ptr noundef %28, i64 noundef %31)
  store i32 %32, ptr %4, align 4, !tbaa !3
  %33 = load i32, ptr %4, align 4, !tbaa !3
  %34 = icmp ne i32 %33, 0
  br i1 %34, label %35, label %37

35:                                               ; preds = %19
  %36 = load i32, ptr %4, align 4, !tbaa !3
  store i32 %36, ptr %2, align 4
  store i32 1, ptr %5, align 4
  br label %45

37:                                               ; preds = %19
  %38 = load ptr, ptr %3, align 8, !tbaa !46
  %39 = getelementptr inbounds nuw %struct.psa_crypto_local_output_s, ptr %38, i32 0, i32 1
  %40 = load ptr, ptr %39, align 8, !tbaa !44
  call void @free(ptr noundef %40) #8
  %41 = load ptr, ptr %3, align 8, !tbaa !46
  %42 = getelementptr inbounds nuw %struct.psa_crypto_local_output_s, ptr %41, i32 0, i32 1
  store ptr null, ptr %42, align 8, !tbaa !44
  %43 = load ptr, ptr %3, align 8, !tbaa !46
  %44 = getelementptr inbounds nuw %struct.psa_crypto_local_output_s, ptr %43, i32 0, i32 2
  store i64 0, ptr %44, align 8, !tbaa !49
  store i32 0, ptr %2, align 4
  store i32 1, ptr %5, align 4
  br label %45

45:                                               ; preds = %37, %35, %18, %10
  call void @llvm.lifetime.end.p0(i64 4, ptr %4) #8
  %46 = load i32, ptr %2, align 4
  ret i32 %46
}

; Function Attrs: nounwind uwtable
define hidden void @psa_crypto_local_input_free(ptr noundef %0) #0 {
  %2 = alloca ptr, align 8
  store ptr %0, ptr %2, align 8, !tbaa !59
  %3 = load ptr, ptr %2, align 8, !tbaa !59
  %4 = getelementptr inbounds nuw %struct.psa_crypto_local_input_s, ptr %3, i32 0, i32 0
  %5 = load ptr, ptr %4, align 8, !tbaa !55
  call void @free(ptr noundef %5) #8
  %6 = load ptr, ptr %2, align 8, !tbaa !59
  %7 = getelementptr inbounds nuw %struct.psa_crypto_local_input_s, ptr %6, i32 0, i32 0
  store ptr null, ptr %7, align 8, !tbaa !55
  %8 = load ptr, ptr %2, align 8, !tbaa !59
  %9 = getelementptr inbounds nuw %struct.psa_crypto_local_input_s, ptr %8, i32 0, i32 1
  store i64 0, ptr %9, align 8, !tbaa !61
  ret void
}

; Function Attrs: inlinehint nounwind uwtable
define internal i32 @psa_driver_wrapper_hash_compute(i32 noundef %0, ptr noundef %1, i64 noundef %2, ptr noundef %3, i64 noundef %4, ptr noundef %5) #6 {
  %7 = alloca i32, align 4
  %8 = alloca i32, align 4
  %9 = alloca ptr, align 8
  %10 = alloca i64, align 8
  %11 = alloca ptr, align 8
  %12 = alloca i64, align 8
  %13 = alloca ptr, align 8
  %14 = alloca i32, align 4
  %15 = alloca i32, align 4
  store i32 %0, ptr %8, align 4, !tbaa !3
  store ptr %1, ptr %9, align 8, !tbaa !29
  store i64 %2, ptr %10, align 8, !tbaa !20
  store ptr %3, ptr %11, align 8, !tbaa !29
  store i64 %4, ptr %12, align 8, !tbaa !20
  store ptr %5, ptr %13, align 8, !tbaa !32
  call void @llvm.lifetime.start.p0(i64 4, ptr %14) #8
  store i32 -151, ptr %14, align 4, !tbaa !3
  %16 = load i32, ptr %8, align 4, !tbaa !3
  %17 = load ptr, ptr %9, align 8, !tbaa !29
  %18 = load i64, ptr %10, align 8, !tbaa !20
  %19 = load ptr, ptr %11, align 8, !tbaa !29
  %20 = load i64, ptr %12, align 8, !tbaa !20
  %21 = load ptr, ptr %13, align 8, !tbaa !32
  %22 = call i32 @mbedtls_psa_hash_compute(i32 noundef %16, ptr noundef %17, i64 noundef %18, ptr noundef %19, i64 noundef %20, ptr noundef %21)
  store i32 %22, ptr %14, align 4, !tbaa !3
  %23 = load i32, ptr %14, align 4, !tbaa !3
  %24 = icmp ne i32 %23, -134
  br i1 %24, label %25, label %27

25:                                               ; preds = %6
  %26 = load i32, ptr %14, align 4, !tbaa !3
  store i32 %26, ptr %7, align 4
  store i32 1, ptr %15, align 4
  br label %28

27:                                               ; preds = %6
  store i32 -134, ptr %7, align 4
  store i32 1, ptr %15, align 4
  br label %28

28:                                               ; preds = %27, %25
  call void @llvm.lifetime.end.p0(i64 4, ptr %14) #8
  %29 = load i32, ptr %7, align 4
  ret i32 %29
}

; Function Attrs: nounwind uwtable
define hidden i32 @psa_crypto_local_output_alloc(ptr noundef %0, i64 noundef %1, ptr noundef %2) #0 {
  %4 = alloca i32, align 4
  %5 = alloca ptr, align 8
  %6 = alloca i64, align 8
  %7 = alloca ptr, align 8
  %8 = alloca %struct.psa_crypto_local_output_s, align 8
  store ptr %0, ptr %5, align 8, !tbaa !29
  store i64 %1, ptr %6, align 8, !tbaa !20
  store ptr %2, ptr %7, align 8, !tbaa !46
  %9 = load ptr, ptr %7, align 8, !tbaa !46
  call void @llvm.memset.p0.i64(ptr align 8 %8, i8 0, i64 24, i1 false)
  call void @llvm.memcpy.p0.p0.i64(ptr align 8 %9, ptr align 8 %8, i64 24, i1 false), !tbaa.struct !48
  %10 = load i64, ptr %6, align 8, !tbaa !20
  %11 = icmp eq i64 %10, 0
  br i1 %11, label %12, label %13

12:                                               ; preds = %3
  store i32 0, ptr %4, align 4
  br label %30

13:                                               ; preds = %3
  %14 = load i64, ptr %6, align 8, !tbaa !20
  %15 = call noalias ptr @calloc(i64 noundef %14, i64 noundef 1) #9
  %16 = load ptr, ptr %7, align 8, !tbaa !46
  %17 = getelementptr inbounds nuw %struct.psa_crypto_local_output_s, ptr %16, i32 0, i32 1
  store ptr %15, ptr %17, align 8, !tbaa !44
  %18 = load ptr, ptr %7, align 8, !tbaa !46
  %19 = getelementptr inbounds nuw %struct.psa_crypto_local_output_s, ptr %18, i32 0, i32 1
  %20 = load ptr, ptr %19, align 8, !tbaa !44
  %21 = icmp eq ptr %20, null
  br i1 %21, label %22, label %23

22:                                               ; preds = %13
  store i32 -141, ptr %4, align 4
  br label %30

23:                                               ; preds = %13
  %24 = load i64, ptr %6, align 8, !tbaa !20
  %25 = load ptr, ptr %7, align 8, !tbaa !46
  %26 = getelementptr inbounds nuw %struct.psa_crypto_local_output_s, ptr %25, i32 0, i32 2
  store i64 %24, ptr %26, align 8, !tbaa !49
  %27 = load ptr, ptr %5, align 8, !tbaa !29
  %28 = load ptr, ptr %7, align 8, !tbaa !46
  %29 = getelementptr inbounds nuw %struct.psa_crypto_local_output_s, ptr %28, i32 0, i32 0
  store ptr %27, ptr %29, align 8, !tbaa !50
  store i32 0, ptr %4, align 4
  br label %30

30:                                               ; preds = %23, %22, %12
  %31 = load i32, ptr %4, align 4
  ret i32 %31
}

; Function Attrs: nounwind uwtable
define hidden i32 @psa_crypto_local_input_alloc(ptr noundef %0, i64 noundef %1, ptr noundef %2) #0 {
  %4 = alloca i32, align 4
  %5 = alloca ptr, align 8
  %6 = alloca i64, align 8
  %7 = alloca ptr, align 8
  %8 = alloca i32, align 4
  %9 = alloca %struct.psa_crypto_local_input_s, align 8
  %10 = alloca i32, align 4
  store ptr %0, ptr %5, align 8, !tbaa !29
  store i64 %1, ptr %6, align 8, !tbaa !20
  store ptr %2, ptr %7, align 8, !tbaa !59
  call void @llvm.lifetime.start.p0(i64 4, ptr %8) #8
  %11 = load ptr, ptr %7, align 8, !tbaa !59
  %12 = getelementptr inbounds nuw %struct.psa_crypto_local_input_s, ptr %9, i32 0, i32 0
  store ptr null, ptr %12, align 8, !tbaa !55
  %13 = getelementptr inbounds nuw %struct.psa_crypto_local_input_s, ptr %9, i32 0, i32 1
  store i64 0, ptr %13, align 8, !tbaa !61
  call void @llvm.memcpy.p0.p0.i64(ptr align 8 %11, ptr align 8 %9, i64 16, i1 false), !tbaa.struct !62
  %14 = load i64, ptr %6, align 8, !tbaa !20
  %15 = icmp eq i64 %14, 0
  br i1 %15, label %16, label %17

16:                                               ; preds = %3
  store i32 0, ptr %4, align 4
  store i32 1, ptr %10, align 4
  br label %53

17:                                               ; preds = %3
  %18 = load i64, ptr %6, align 8, !tbaa !20
  %19 = call noalias ptr @calloc(i64 noundef %18, i64 noundef 1) #9
  %20 = load ptr, ptr %7, align 8, !tbaa !59
  %21 = getelementptr inbounds nuw %struct.psa_crypto_local_input_s, ptr %20, i32 0, i32 0
  store ptr %19, ptr %21, align 8, !tbaa !55
  %22 = load ptr, ptr %7, align 8, !tbaa !59
  %23 = getelementptr inbounds nuw %struct.psa_crypto_local_input_s, ptr %22, i32 0, i32 0
  %24 = load ptr, ptr %23, align 8, !tbaa !55
  %25 = icmp eq ptr %24, null
  br i1 %25, label %26, label %27

26:                                               ; preds = %17
  store i32 -141, ptr %4, align 4
  store i32 1, ptr %10, align 4
  br label %53

27:                                               ; preds = %17
  %28 = load i64, ptr %6, align 8, !tbaa !20
  %29 = load ptr, ptr %7, align 8, !tbaa !59
  %30 = getelementptr inbounds nuw %struct.psa_crypto_local_input_s, ptr %29, i32 0, i32 1
  store i64 %28, ptr %30, align 8, !tbaa !61
  %31 = load ptr, ptr %5, align 8, !tbaa !29
  %32 = load i64, ptr %6, align 8, !tbaa !20
  %33 = load ptr, ptr %7, align 8, !tbaa !59
  %34 = getelementptr inbounds nuw %struct.psa_crypto_local_input_s, ptr %33, i32 0, i32 0
  %35 = load ptr, ptr %34, align 8, !tbaa !55
  %36 = load ptr, ptr %7, align 8, !tbaa !59
  %37 = getelementptr inbounds nuw %struct.psa_crypto_local_input_s, ptr %36, i32 0, i32 1
  %38 = load i64, ptr %37, align 8, !tbaa !61
  %39 = call i32 @psa_crypto_copy_input(ptr noundef %31, i64 noundef %32, ptr noundef %35, i64 noundef %38)
  store i32 %39, ptr %8, align 4, !tbaa !3
  %40 = load i32, ptr %8, align 4, !tbaa !3
  %41 = icmp ne i32 %40, 0
  br i1 %41, label %42, label %43

42:                                               ; preds = %27
  br label %44

43:                                               ; preds = %27
  store i32 0, ptr %4, align 4
  store i32 1, ptr %10, align 4
  br label %53

44:                                               ; preds = %42
  %45 = load ptr, ptr %7, align 8, !tbaa !59
  %46 = getelementptr inbounds nuw %struct.psa_crypto_local_input_s, ptr %45, i32 0, i32 0
  %47 = load ptr, ptr %46, align 8, !tbaa !55
  call void @free(ptr noundef %47) #8
  %48 = load ptr, ptr %7, align 8, !tbaa !59
  %49 = getelementptr inbounds nuw %struct.psa_crypto_local_input_s, ptr %48, i32 0, i32 0
  store ptr null, ptr %49, align 8, !tbaa !55
  %50 = load ptr, ptr %7, align 8, !tbaa !59
  %51 = getelementptr inbounds nuw %struct.psa_crypto_local_input_s, ptr %50, i32 0, i32 1
  store i64 0, ptr %51, align 8, !tbaa !61
  %52 = load i32, ptr %8, align 4, !tbaa !3
  store i32 %52, ptr %4, align 4
  store i32 1, ptr %10, align 4
  br label %53

53:                                               ; preds = %44, %43, %26, %16
  call void @llvm.lifetime.end.p0(i64 4, ptr %8) #8
  %54 = load i32, ptr %4, align 4
  ret i32 %54
}

; Function Attrs: nounwind uwtable
define hidden i32 @psa_hash_compute(i32 noundef %0, ptr noundef %1, i64 noundef %2, ptr noundef %3, i64 noundef %4, ptr noundef %5) #0 {
  %7 = alloca i32, align 4
  %8 = alloca i32, align 4
  %9 = alloca ptr, align 8
  %10 = alloca i64, align 8
  %11 = alloca ptr, align 8
  %12 = alloca i64, align 8
  %13 = alloca ptr, align 8
  %14 = alloca i32, align 4
  %15 = alloca %struct.psa_crypto_local_input_s, align 8
  %16 = alloca ptr, align 8
  %17 = alloca %struct.psa_crypto_local_output_s, align 8
  %18 = alloca ptr, align 8
  %19 = alloca i32, align 4
  %20 = alloca i32, align 4
  store i32 %0, ptr %8, align 4, !tbaa !3
  store ptr %1, ptr %9, align 8, !tbaa !29
  store i64 %2, ptr %10, align 8, !tbaa !20
  store ptr %3, ptr %11, align 8, !tbaa !29
  store i64 %4, ptr %12, align 8, !tbaa !20
  store ptr %5, ptr %13, align 8, !tbaa !32
  call void @llvm.lifetime.start.p0(i64 4, ptr %14) #8
  store i32 -151, ptr %14, align 4, !tbaa !3
  call void @llvm.lifetime.start.p0(i64 16, ptr %15) #8
  call void @llvm.memset.p0.i64(ptr align 8 %15, i8 0, i64 16, i1 false)
  call void @llvm.lifetime.start.p0(i64 8, ptr %16) #8
  store ptr null, ptr %16, align 8, !tbaa !29
  call void @llvm.lifetime.start.p0(i64 24, ptr %17) #8
  call void @llvm.memset.p0.i64(ptr align 8 %17, i8 0, i64 24, i1 false)
  call void @llvm.lifetime.start.p0(i64 8, ptr %18) #8
  store ptr null, ptr %18, align 8, !tbaa !29
  %21 = load ptr, ptr %13, align 8, !tbaa !32
  store i64 0, ptr %21, align 8, !tbaa !20
  %22 = load i32, ptr %8, align 4, !tbaa !3
  %23 = and i32 %22, 2130706432
  %24 = icmp eq i32 %23, 33554432
  br i1 %24, label %26, label %25

25:                                               ; preds = %6
  store i32 -135, ptr %7, align 4
  store i32 1, ptr %19, align 4
  br label %63

26:                                               ; preds = %6
  %27 = load ptr, ptr %9, align 8, !tbaa !29
  %28 = load i64, ptr %10, align 8, !tbaa !20
  %29 = call i32 @psa_crypto_local_input_alloc(ptr noundef %27, i64 noundef %28, ptr noundef %15)
  store i32 %29, ptr %14, align 4, !tbaa !3
  %30 = load i32, ptr %14, align 4, !tbaa !3
  %31 = icmp ne i32 %30, 0
  br i1 %31, label %32, label %33

32:                                               ; preds = %26
  br label %52

33:                                               ; preds = %26
  %34 = getelementptr inbounds nuw %struct.psa_crypto_local_input_s, ptr %15, i32 0, i32 0
  %35 = load ptr, ptr %34, align 8, !tbaa !55
  store ptr %35, ptr %16, align 8, !tbaa !29
  %36 = load ptr, ptr %11, align 8, !tbaa !29
  %37 = load i64, ptr %12, align 8, !tbaa !20
  %38 = call i32 @psa_crypto_local_output_alloc(ptr noundef %36, i64 noundef %37, ptr noundef %17)
  store i32 %38, ptr %14, align 4, !tbaa !3
  %39 = load i32, ptr %14, align 4, !tbaa !3
  %40 = icmp ne i32 %39, 0
  br i1 %40, label %41, label %42

41:                                               ; preds = %33
  br label %52

42:                                               ; preds = %33
  %43 = getelementptr inbounds nuw %struct.psa_crypto_local_output_s, ptr %17, i32 0, i32 1
  %44 = load ptr, ptr %43, align 8, !tbaa !44
  store ptr %44, ptr %18, align 8, !tbaa !29
  %45 = load i32, ptr %8, align 4, !tbaa !3
  %46 = load ptr, ptr %16, align 8, !tbaa !29
  %47 = load i64, ptr %10, align 8, !tbaa !20
  %48 = load ptr, ptr %18, align 8, !tbaa !29
  %49 = load i64, ptr %12, align 8, !tbaa !20
  %50 = load ptr, ptr %13, align 8, !tbaa !32
  %51 = call i32 @psa_driver_wrapper_hash_compute(i32 noundef %45, ptr noundef %46, i64 noundef %47, ptr noundef %48, i64 noundef %49, ptr noundef %50)
  store i32 %51, ptr %14, align 4, !tbaa !3
  br label %52

52:                                               ; preds = %42, %41, %32
  store ptr null, ptr %16, align 8, !tbaa !29
  call void @psa_crypto_local_input_free(ptr noundef %15)
  store ptr null, ptr %18, align 8, !tbaa !29
  br label %53

53:                                               ; preds = %52
  call void @llvm.lifetime.start.p0(i64 4, ptr %20) #8
  %54 = call i32 @psa_crypto_local_output_free(ptr noundef %17)
  store i32 %54, ptr %20, align 4, !tbaa !3
  %55 = load i32, ptr %20, align 4, !tbaa !3
  %56 = icmp ne i32 %55, 0
  br i1 %56, label %57, label %59

57:                                               ; preds = %53
  %58 = load i32, ptr %20, align 4, !tbaa !3
  store i32 %58, ptr %14, align 4, !tbaa !3
  br label %59

59:                                               ; preds = %57, %53
  call void @llvm.lifetime.end.p0(i64 4, ptr %20) #8
  br label %60

60:                                               ; preds = %59
  br label %61

61:                                               ; preds = %60
  %62 = load i32, ptr %14, align 4, !tbaa !3
  store i32 %62, ptr %7, align 4
  store i32 1, ptr %19, align 4
  br label %63

63:                                               ; preds = %61, %25
  call void @llvm.lifetime.end.p0(i64 8, ptr %18) #8
  call void @llvm.lifetime.end.p0(i64 24, ptr %17) #8
  call void @llvm.lifetime.end.p0(i64 8, ptr %16) #8
  call void @llvm.lifetime.end.p0(i64 16, ptr %15) #8
  call void @llvm.lifetime.end.p0(i64 4, ptr %14) #8
  %64 = load i32, ptr %7, align 4
  ret i32 %64
}

; Function Attrs: nounwind uwtable
define internal i32 @psa_key_derivation_tls12_ecjpake_to_pms_read(ptr noundef %0, ptr noundef %1, i64 noundef %2) #0 {
  %4 = alloca i32, align 4
  %5 = alloca ptr, align 8
  %6 = alloca ptr, align 8
  %7 = alloca i64, align 8
  %8 = alloca i32, align 4
  %9 = alloca i64, align 8
  %10 = alloca i32, align 4
  store ptr %0, ptr %5, align 8, !tbaa !21
  store ptr %1, ptr %6, align 8, !tbaa !29
  store i64 %2, ptr %7, align 8, !tbaa !20
  call void @llvm.lifetime.start.p0(i64 4, ptr %8) #8
  store i32 -151, ptr %8, align 4, !tbaa !3
  call void @llvm.lifetime.start.p0(i64 8, ptr %9) #8
  store i64 0, ptr %9, align 8, !tbaa !20
  %11 = load i64, ptr %7, align 8, !tbaa !20
  %12 = icmp ne i64 %11, 32
  br i1 %12, label %13, label %14

13:                                               ; preds = %3
  store i32 -135, ptr %4, align 4
  store i32 1, ptr %10, align 4
  br label %31

14:                                               ; preds = %3
  %15 = load ptr, ptr %5, align 8, !tbaa !21
  %16 = getelementptr inbounds nuw %struct.psa_tls12_ecjpake_to_pms_t, ptr %15, i32 0, i32 0
  %17 = getelementptr inbounds [32 x i8], ptr %16, i64 0, i64 0
  %18 = load ptr, ptr %6, align 8, !tbaa !29
  %19 = load i64, ptr %7, align 8, !tbaa !20
  %20 = call i32 @psa_hash_compute(i32 noundef 33554441, ptr noundef %17, i64 noundef 32, ptr noundef %18, i64 noundef %19, ptr noundef %9)
  store i32 %20, ptr %8, align 4, !tbaa !3
  %21 = load i32, ptr %8, align 4, !tbaa !3
  %22 = icmp ne i32 %21, 0
  br i1 %22, label %23, label %25

23:                                               ; preds = %14
  %24 = load i32, ptr %8, align 4, !tbaa !3
  store i32 %24, ptr %4, align 4
  store i32 1, ptr %10, align 4
  br label %31

25:                                               ; preds = %14
  %26 = load i64, ptr %9, align 8, !tbaa !20
  %27 = load i64, ptr %7, align 8, !tbaa !20
  %28 = icmp ne i64 %26, %27
  br i1 %28, label %29, label %30

29:                                               ; preds = %25
  store i32 -132, ptr %4, align 4
  store i32 1, ptr %10, align 4
  br label %31

30:                                               ; preds = %25
  store i32 0, ptr %4, align 4
  store i32 1, ptr %10, align 4
  br label %31

31:                                               ; preds = %30, %29, %23, %13
  call void @llvm.lifetime.end.p0(i64 8, ptr %9) #8
  call void @llvm.lifetime.end.p0(i64 4, ptr %8) #8
  %32 = load i32, ptr %4, align 4
  ret i32 %32
}