; Function Attrs: nounwind uwtable
define internal fastcc i32 @psa_key_derivation_tls12_ecjpake_to_pms_read(ptr noundef readonly captures(none) %0, ptr noundef writeonly %1, i64 noundef %2) unnamed_addr #7 {
  %4 = alloca i64, align 8
  call void @llvm.lifetime.start.p0(i64 8, ptr nonnull %4) #22
  %.not = icmp eq i64 %2, 32
  br i1 %.not, label %5, label %psa_hash_compute.exit.thread

5:                                                ; preds = %3
  store i64 0, ptr %4, align 8, !tbaa !25
  %6 = tail call noalias dereferenceable_or_null(32) ptr @calloc(i64 noundef 32, i64 noundef 1) #21
  %7 = icmp eq ptr %6, null
  br i1 %7, label %psa_hash_compute.exit.thread13, label %8

8:                                                ; preds = %5
  tail call void @llvm.memcpy.p0.p0.i64(ptr noundef nonnull align 1 dereferenceable(32) %6, ptr noundef nonnull readonly align 1 dereferenceable(32) %0, i64 range(i64 1, 0) 32, i1 false)
  %9 = tail call noalias dereferenceable_or_null(32) ptr @calloc(i64 noundef 32, i64 noundef 1) #21
  %10 = icmp eq ptr %9, null
  br i1 %10, label %psa_hash_compute.exit.thread13, label %psa_crypto_local_input_alloc.exit.i

psa_crypto_local_input_alloc.exit.i:              ; preds = %8
  %11 = call i32 @mbedtls_psa_hash_compute(i32 noundef 33554441, ptr noundef nonnull %6, i64 noundef 32, ptr noundef nonnull %9, i64 noundef 32, ptr noundef nonnull %4) #22
  call void @free(ptr noundef nonnull %6) #22
  %12 = icmp eq ptr %1, null
  br i1 %12, label %psa_hash_compute.exit.thread, label %psa_hash_compute.exit

psa_hash_compute.exit.thread13:                   ; preds = %8, %5
  tail call void @free(ptr noundef %6) #22
  br label %psa_hash_compute.exit.thread

psa_hash_compute.exit:                            ; preds = %psa_crypto_local_input_alloc.exit.i
  call void @llvm.memcpy.p0.p0.i64(ptr noundef nonnull align 1 dereferenceable(32) %1, ptr noundef nonnull readonly align 1 dereferenceable(32) %9, i64 32, i1 false)
  call void @free(ptr noundef nonnull %9) #22
  %.not9 = icmp eq i32 %11, 0
  br i1 %.not9, label %13, label %psa_hash_compute.exit.thread

13:                                               ; preds = %psa_hash_compute.exit
  %14 = load i64, ptr %4, align 8, !tbaa !25
  %.not10 = icmp eq i64 %14, 32
  %. = select i1 %.not10, i32 0, i32 -132
  br label %psa_hash_compute.exit.thread

psa_hash_compute.exit.thread:                     ; preds = %psa_crypto_local_input_alloc.exit.i, %psa_hash_compute.exit.thread13, %13, %psa_hash_compute.exit, %3
  %.0 = phi i32 [ -135, %3 ], [ %11, %psa_hash_compute.exit ], [ %., %13 ], [ -141, %psa_hash_compute.exit.thread13 ], [ -151, %psa_crypto_local_input_alloc.exit.i ]
  call void @llvm.lifetime.end.p0(i64 8, ptr nonnull %4) #22
  ret i32 %.0
}